target datalayout = "e-m:e-p270:32:32-p271:32:32-p272:64:64-i64:64-i128:128-f80:128-n8:16:32:64-S128"
target triple = "x86_64-pc-linux-gnu"

%class.params_ref = type { ptr }

; Function Attrs: mustprogress nounwind uwtable
define linkonce_odr hidden void @_ZN10params_refC2Ev(ptr noundef nonnull align 8 dereferenceable(8) %0) unnamed_addr #7 comdat align 2 {
  %2 = alloca ptr, align 8
  store ptr %0, ptr %2, align 8, !tbaa !8
  %3 = load ptr, ptr %2, align 8
  %4 = getelementptr inbounds nuw %class.params_ref, ptr %3, i32 0, i32 0
  store ptr null, ptr %4, align 8, !tbaa !14
  ret void
}

; Function Attrs: mustprogress uwtable
define hidden noundef ptr @_Z13mk_lra_tacticR11ast_managerRK10params_ref(ptr noundef nonnull align 8 dereferenceable(976) %0, ptr noundef nonnull align 8 dereferenceable(8) %1) #4 personality ptr @__gxx_personality_v0 {
  %3 = alloca ptr, align 8
  %4 = alloca ptr, align 8
  %5 = alloca ptr, align 8
  %6 = alloca %class.params_ref, align 8
  %7 = alloca ptr, align 8
  %8 = alloca i32, align 4
  %9 = alloca %class.params_ref, align 8
  %10 = alloca %class.params_ref, align 8
  store ptr %0, ptr %3, align 8, !tbaa !3
  store ptr %1, ptr %4, align 8, !tbaa !8
  call void @llvm.lifetime.start.p0(i64 8, ptr %5) #3
  %11 = load ptr, ptr %3, align 8, !tbaa !3
  %12 = call noundef ptr @_ZL21mk_quant_preprocessorR11ast_managerb(ptr noundef nonnull align 8 dereferenceable(976) %11, i1 noundef zeroext false)
  %13 = load ptr, ptr %3, align 8, !tbaa !3
  %14 = load ptr, ptr %4, align 8, !tbaa !8
  %15 = call noundef ptr @_Z17mk_qe_lite_tacticR11ast_managerRK10params_ref(ptr noundef nonnull align 8 dereferenceable(976) %13, ptr noundef nonnull align 8 dereferenceable(8) %14)
  %16 = call noundef ptr @_Z23mk_has_quantifier_probev()
  %17 = call noundef ptr @_Z16mk_is_lira_probev()
  %18 = load ptr, ptr %3, align 8, !tbaa !3
  %19 = load ptr, ptr %4, align 8, !tbaa !8
  %20 = call noundef ptr @_Z14mk_qsat_tacticR11ast_managerRK10params_ref(ptr noundef nonnull align 8 dereferenceable(976) %18, ptr noundef nonnull align 8 dereferenceable(8) %19)
  %21 = load ptr, ptr %3, align 8, !tbaa !3
  call void @llvm.lifetime.start.p0(i64 8, ptr %6) #3
  call void @llvm.memset.p0.i64(ptr align 8 %6, i8 0, i64 8, i1 false)
  call void @_ZN10params_refC2Ev(ptr noundef nonnull align 8 dereferenceable(8) %6) #3
  %22 = invoke noundef ptr @_Z13mk_smt_tacticR11ast_managerRK10params_ref(ptr noundef nonnull align 8 dereferenceable(976) %21, ptr noundef nonnull align 8 dereferenceable(8) %6)
          to label %23 unwind label %44

23:                                               ; preds = %2
  %24 = invoke noundef ptr @_Z7or_elseP6tacticS0_(ptr noundef %20, ptr noundef %22)
          to label %25 unwind label %44

25:                                               ; preds = %23
  %26 = load ptr, ptr %3, align 8, !tbaa !3
  call void @llvm.lifetime.start.p0(i64 8, ptr %9) #3
  call void @llvm.memset.p0.i64(ptr align 8 %9, i8 0, i64 8, i1 false)
  call void @_ZN10params_refC2Ev(ptr noundef nonnull align 8 dereferenceable(8) %9) #3
  %27 = invoke noundef ptr @_Z13mk_smt_tacticR11ast_managerRK10params_ref(ptr noundef nonnull align 8 dereferenceable(976) %26, ptr noundef nonnull align 8 dereferenceable(8) %9)
          to label %28 unwind label %48

28:                                               ; preds = %25
  %29 = invoke noundef ptr @_Z4condP5probeP6tacticS2_(ptr noundef %17, ptr noundef %24, ptr noundef %27)
          to label %30 unwind label %48

30:                                               ; preds = %28
  %31 = load ptr, ptr %3, align 8, !tbaa !3
  call void @llvm.lifetime.start.p0(i64 8, ptr %10) #3
  call void @llvm.memset.p0.i64(ptr align 8 %10, i8 0, i64 8, i1 false)
  call void @_ZN10params_refC2Ev(ptr noundef nonnull align 8 dereferenceable(8) %10) #3
  %32 = invoke noundef ptr @_Z13mk_smt_tacticR11ast_managerRK10params_ref(ptr noundef nonnull align 8 dereferenceable(976) %31, ptr noundef nonnull align 8 dereferenceable(8) %10)
          to label %33 unwind label %52

33:                                               ; preds = %30
  %34 = invoke noundef ptr @_Z4condP5probeP6tacticS2_(ptr noundef %16, ptr noundef %29, ptr noundef %32)
          to label %35 unwind label %52

35:                                               ; preds = %33
  %36 = invoke noundef ptr @_Z8and_thenP6tacticS0_S0_(ptr noundef %12, ptr noundef %15, ptr noundef %34)
          to label %37 unwind label %52

37:                                               ; preds = %35
  call void @_ZN10params_refD1Ev(ptr noundef nonnull align 8 dereferenceable(8) %10) #3
  call void @llvm.lifetime.end.p0(i64 8, ptr %10) #3
  call void @_ZN10params_refD1Ev(ptr noundef nonnull align 8 dereferenceable(8) %9) #3
  call void @llvm.lifetime.end.p0(i64 8, ptr %9) #3
  call void @_ZN10params_refD1Ev(ptr noundef nonnull align 8 dereferenceable(8) %6) #3
  call void @llvm.lifetime.end.p0(i64 8, ptr %6) #3
  store ptr %36, ptr %5, align 8, !tbaa !10
  %38 = load ptr, ptr %5, align 8, !tbaa !10
  %39 = load ptr, ptr %4, align 8, !tbaa !8
  %40 = load ptr, ptr %38, align 8, !tbaa !12
  %41 = getelementptr inbounds ptr, ptr %40, i64 13
  %42 = load ptr, ptr %41, align 8
  call void %42(ptr noundef nonnull align 8 dereferenceable(12) %38, ptr noundef nonnull align 8 dereferenceable(8) %39)
  %43 = load ptr, ptr %5, align 8, !tbaa !10
  call void @llvm.lifetime.end.p0(i64 8, ptr %5) #3
  ret ptr %43

44:                                               ; preds = %23, %2
  %45 = landingpad { ptr, i32 }
          cleanup
  %46 = extractvalue { ptr, i32 } %45, 0
  store ptr %46, ptr %7, align 8
  %47 = extractvalue { ptr, i32 } %45, 1
  store i32 %47, ptr %8, align 4
  br label %57

48:                                               ; preds = %28, %25
  %49 = landingpad { ptr, i32 }
          cleanup
  %50 = extractvalue { ptr, i32 } %49, 0
  store ptr %50, ptr %7, align 8
  %51 = extractvalue { ptr, i32 } %49, 1
  store i32 %51, ptr %8, align 4
  br label %56

52:                                               ; preds = %35, %33, %30
  %53 = landingpad { ptr, i32 }
          cleanup
  %54 = extractvalue { ptr, i32 } %53, 0
  store ptr %54, ptr %7, align 8
  %55 = extractvalue { ptr, i32 } %53, 1
  store i32 %55, ptr %8, align 4
  call void @_ZN10params_refD1Ev(ptr noundef nonnull align 8 dereferenceable(8) %10) #3
  call void @llvm.lifetime.end.p0(i64 8, ptr %10) #3
  br label %56

56:                                               ; preds = %52, %48
  call void @_ZN10params_refD1Ev(ptr noundef nonnull align 8 dereferenceable(8) %9) #3
  call void @llvm.lifetime.end.p0(i64 8, ptr %9) #3
  br label %57

57:                                               ; preds = %56, %44
  call void @_ZN10params_refD1Ev(ptr noundef nonnull align 8 dereferenceable(8) %6) #3
  call void @llvm.lifetime.end.p0(i64 8, ptr %6) #3
  call void @llvm.lifetime.end.p0(i64 8, ptr %5) #3
  br label %58

58:                                               ; preds = %57
  %59 = load ptr, ptr %7, align 8
  %60 = load i32, ptr %8, align 4
  %61 = insertvalue { ptr, i32 } poison, ptr %59, 0
  %62 = insertvalue { ptr, i32 } %61, i32 %60, 1
  resume { ptr, i32 } %62
}