; Function Attrs: mustprogress uwtable
define hidden noundef ptr @_Z13mk_lra_tacticR11ast_managerRK10params_ref(ptr noundef nonnull align 8 dereferenceable(976) %0, ptr noundef nonnull align 8 dereferenceable(8) %1) local_unnamed_addr #3 personality ptr @__gxx_personality_v0 {
  %3 = alloca %class.params_ref, align 8
  %4 = alloca %class.params_ref, align 8
  %5 = alloca %class.params_ref, align 8
  %6 = tail call fastcc noundef ptr @_ZL21mk_quant_preprocessorR11ast_managerb(ptr noundef nonnull align 8 dereferenceable(976) %0, i1 noundef zeroext false)
  %7 = tail call noundef ptr @_Z17mk_qe_lite_tacticR11ast_managerRK10params_ref(ptr noundef nonnull align 8 dereferenceable(976) %0, ptr noundef nonnull align 8 dereferenceable(8) %1)
  %8 = tail call noundef ptr @_Z23mk_has_quantifier_probev()
  %9 = tail call noundef ptr @_Z16mk_is_lira_probev()
  %10 = tail call noundef ptr @_Z14mk_qsat_tacticR11ast_managerRK10params_ref(ptr noundef nonnull align 8 dereferenceable(976) %0, ptr noundef nonnull align 8 dereferenceable(8) %1)
  call void @llvm.lifetime.start.p0(i64 8, ptr nonnull %3) #22
  store ptr null, ptr %3, align 8, !tbaa !3
  %11 = invoke noundef ptr @_Z13mk_smt_tacticR11ast_managerRK10params_ref(ptr noundef nonnull align 8 dereferenceable(976) %0, ptr noundef nonnull align 8 dereferenceable(8) %3)
          to label %12 unwind label %28

12:                                               ; preds = %2
  %13 = invoke noundef ptr @_Z7or_elseP6tacticS0_(ptr noundef %10, ptr noundef %11)
          to label %14 unwind label %28

14:                                               ; preds = %12
  call void @llvm.lifetime.start.p0(i64 8, ptr nonnull %4) #22
  store ptr null, ptr %4, align 8, !tbaa !3
  %15 = invoke noundef ptr @_Z13mk_smt_tacticR11ast_managerRK10params_ref(ptr noundef nonnull align 8 dereferenceable(976) %0, ptr noundef nonnull align 8 dereferenceable(8) %4)
          to label %16 unwind label %30

16:                                               ; preds = %14
  %17 = invoke noundef ptr @_Z4condP5probeP6tacticS2_(ptr noundef %9, ptr noundef %13, ptr noundef %15)
          to label %18 unwind label %30

18:                                               ; preds = %16
  call void @llvm.lifetime.start.p0(i64 8, ptr nonnull %5) #22
  store ptr null, ptr %5, align 8, !tbaa !3
  %19 = invoke noundef ptr @_Z13mk_smt_tacticR11ast_managerRK10params_ref(ptr noundef nonnull align 8 dereferenceable(976) %0, ptr noundef nonnull align 8 dereferenceable(8) %5)
          to label %20 unwind label %32

20:                                               ; preds = %18
  %21 = invoke noundef ptr @_Z4condP5probeP6tacticS2_(ptr noundef %8, ptr noundef %17, ptr noundef %19)
          to label %22 unwind label %32

22:                                               ; preds = %20
  %23 = invoke noundef ptr @_Z8and_thenP6tacticS0_S0_(ptr noundef %6, ptr noundef %7, ptr noundef %21)
          to label %24 unwind label %32

24:                                               ; preds = %22
  call void @_ZN10params_refD1Ev(ptr noundef nonnull align 8 dereferenceable(8) %5) #22
  call void @llvm.lifetime.end.p0(i64 8, ptr nonnull %5) #22
  call void @_ZN10params_refD1Ev(ptr noundef nonnull align 8 dereferenceable(8) %4) #22
  call void @llvm.lifetime.end.p0(i64 8, ptr nonnull %4) #22
  call void @_ZN10params_refD1Ev(ptr noundef nonnull align 8 dereferenceable(8) %3) #22
  call void @llvm.lifetime.end.p0(i64 8, ptr nonnull %3) #22
  %25 = load ptr, ptr %23, align 8, !tbaa !9
  %26 = getelementptr inbounds nuw i8, ptr %25, i64 104
  %27 = load ptr, ptr %26, align 8
  call void %27(ptr noundef nonnull align 8 dereferenceable(12) %23, ptr noundef nonnull align 8 dereferenceable(8) %1)
  ret ptr %23

28:                                               ; preds = %12, %2
  %29 = landingpad { ptr, i32 }
          cleanup
  br label %35

30:                                               ; preds = %16, %14
  %31 = landingpad { ptr, i32 }
          cleanup
  br label %34

32:                                               ; preds = %22, %20, %18
  %33 = landingpad { ptr, i32 }
          cleanup
  call void @_ZN10params_refD1Ev(ptr noundef nonnull align 8 dereferenceable(8) %5) #22
  call void @llvm.lifetime.end.p0(i64 8, ptr nonnull %5) #22
  br label %34

34:                                               ; preds = %32, %30
  %.pn = phi { ptr, i32 } [ %33, %32 ], [ %31, %30 ]
  call void @_ZN10params_refD1Ev(ptr noundef nonnull align 8 dereferenceable(8) %4) #22
  call void @llvm.lifetime.end.p0(i64 8, ptr nonnull %4) #22
  br label %35

35:                                               ; preds = %34, %28
  %.pn.pn = phi { ptr, i32 } [ %.pn, %34 ], [ %29, %28 ]
  call void @_ZN10params_refD1Ev(ptr noundef nonnull align 8 dereferenceable(8) %3) #22
  call void @llvm.lifetime.end.p0(i64 8, ptr nonnull %3) #22
  resume { ptr, i32 } %.pn.pn
}